target datalayout = "e-m:e-p270:32:32-p271:32:32-p272:64:64-i64:64-i128:128-f80:128-n8:16:32:64-S128"
target triple = "x86_64-pc-linux-gnu"

%"class.ZXing::Pdf417::BoundingBox" = type { i32, i32, %"class.ZXing::Nullable", %"class.ZXing::Nullable", %"class.ZXing::Nullable", %"class.ZXing::Nullable", i32, i32, i32, i32 }
%"class.ZXing::Nullable" = type { i8, %"class.ZXing::ResultPoint" }
%"class.ZXing::ResultPoint" = type { %"struct.ZXing::PointT" }
%"struct.ZXing::PointT" = type { double, double }

; Function Attrs: mustprogress nounwind uwtable
define linkonce_odr void @_ZN5ZXing6PointTIdEC2Edd(ptr noundef nonnull align 8 dereferenceable(16) %0, double noundef %1, double noundef %2) unnamed_addr #0 comdat align 2 {
  %4 = alloca ptr, align 8
  %5 = alloca double, align 8
  %6 = alloca double, align 8
  store ptr %0, ptr %4, align 8, !tbaa !42
  store double %1, ptr %5, align 8, !tbaa !44
  store double %2, ptr %6, align 8, !tbaa !44
  %7 = load ptr, ptr %4, align 8
  %8 = getelementptr inbounds nuw %"struct.ZXing::PointT", ptr %7, i32 0, i32 0
  %9 = load double, ptr %5, align 8, !tbaa !44
  store double %9, ptr %8, align 8, !tbaa !36
  %10 = getelementptr inbounds nuw %"struct.ZXing::PointT", ptr %7, i32 0, i32 1
  %11 = load double, ptr %6, align 8, !tbaa !44
  store double %11, ptr %10, align 8, !tbaa !33
  ret void
}

; Function Attrs: inlinehint mustprogress nounwind uwtable
define linkonce_odr noundef nonnull align 4 dereferenceable(4) ptr @_ZSt3maxIfERKT_S2_S2_(ptr noundef nonnull align 4 dereferenceable(4) %0, ptr noundef nonnull align 4 dereferenceable(4) %1) #2 comdat {
  %3 = alloca ptr, align 8
  %4 = alloca ptr, align 8
  %5 = alloca ptr, align 8
  store ptr %0, ptr %4, align 8, !tbaa !34
  store ptr %1, ptr %5, align 8, !tbaa !34
  %6 = load ptr, ptr %4, align 8, !tbaa !34
  %7 = load float, ptr %6, align 4, !tbaa !29
  %8 = load ptr, ptr %5, align 8, !tbaa !34
  %9 = load float, ptr %8, align 4, !tbaa !29
  %10 = fcmp olt float %7, %9
  br i1 %10, label %11, label %13

11:                                               ; preds = %2
  %12 = load ptr, ptr %5, align 8, !tbaa !34
  store ptr %12, ptr %3, align 8
  br label %15

13:                                               ; preds = %2
  %14 = load ptr, ptr %4, align 8, !tbaa !34
  store ptr %14, ptr %3, align 8
  br label %15

15:                                               ; preds = %13, %11
  %16 = load ptr, ptr %3, align 8
  ret ptr %16
}

; Function Attrs: inlinehint mustprogress nounwind uwtable
define linkonce_odr noundef nonnull align 4 dereferenceable(4) ptr @_ZSt3minIfERKT_S2_S2_(ptr noundef nonnull align 4 dereferenceable(4) %0, ptr noundef nonnull align 4 dereferenceable(4) %1) #2 comdat {
  %3 = alloca ptr, align 8
  %4 = alloca ptr, align 8
  %5 = alloca ptr, align 8
  store ptr %0, ptr %4, align 8, !tbaa !34
  store ptr %1, ptr %5, align 8, !tbaa !34
  %6 = load ptr, ptr %5, align 8, !tbaa !34
  %7 = load float, ptr %6, align 4, !tbaa !29
  %8 = load ptr, ptr %4, align 8, !tbaa !34
  %9 = load float, ptr %8, align 4, !tbaa !29
  %10 = fcmp olt float %7, %9
  br i1 %10, label %11, label %13

11:                                               ; preds = %2
  %12 = load ptr, ptr %5, align 8, !tbaa !34
  store ptr %12, ptr %3, align 8
  br label %15

13:                                               ; preds = %2
  %14 = load ptr, ptr %4, align 8, !tbaa !34
  store ptr %14, ptr %3, align 8
  br label %15

15:                                               ; preds = %13, %11
  %16 = load ptr, ptr %3, align 8
  ret ptr %16
}

; Function Attrs: mustprogress nounwind uwtable
define linkonce_odr noundef float @_ZNK5ZXing11ResultPoint1xEv(ptr noundef nonnull align 8 dereferenceable(16) %0) #0 comdat align 2 {
  %2 = alloca ptr, align 8
  store ptr %0, ptr %2, align 8, !tbaa !31
  %3 = load ptr, ptr %2, align 8
  %4 = getelementptr inbounds nuw %"struct.ZXing::PointT", ptr %3, i32 0, i32 0
  %5 = load double, ptr %4, align 8, !tbaa !36
  %6 = fptrunc double %5 to float
  ret float %6
}

; Function Attrs: mustprogress nounwind uwtable
define linkonce_odr noundef nonnull align 8 dereferenceable(24) ptr @_ZN5ZXing8NullableINS_11ResultPointEEaSEOS1_(ptr noundef nonnull align 8 dereferenceable(24) %0, ptr noundef nonnull align 8 dereferenceable(16) %1) #0 comdat align 2 {
  %3 = alloca ptr, align 8
  %4 = alloca ptr, align 8
  store ptr %0, ptr %3, align 8, !tbaa !21
  store ptr %1, ptr %4, align 8, !tbaa !31
  %5 = load ptr, ptr %3, align 8
  %6 = getelementptr inbounds nuw %"class.ZXing::Nullable", ptr %5, i32 0, i32 0
  store i8 1, ptr %6, align 8, !tbaa !23
  %7 = load ptr, ptr %4, align 8, !tbaa !31
  %8 = getelementptr inbounds nuw %"class.ZXing::Nullable", ptr %5, i32 0, i32 1
  call void @llvm.memcpy.p0.p0.i64(ptr align 8 %8, ptr align 8 %7, i64 16, i1 false)
  ret ptr %5
}

; Function Attrs: mustprogress uwtable
define linkonce_odr void @_ZN5ZXing11ResultPointC2Eff(ptr noundef nonnull align 8 dereferenceable(16) %0, float noundef %1, float noundef %2) unnamed_addr #1 comdat align 2 {
  %4 = alloca ptr, align 8
  %5 = alloca float, align 4
  %6 = alloca float, align 4
  store ptr %0, ptr %4, align 8, !tbaa !31
  store float %1, ptr %5, align 4, !tbaa !29
  store float %2, ptr %6, align 4, !tbaa !29
  %7 = load ptr, ptr %4, align 8
  %8 = load float, ptr %5, align 4, !tbaa !29
  %9 = fpext float %8 to double
  %10 = load float, ptr %6, align 4, !tbaa !29
  %11 = fpext float %10 to double
  call void @_ZN5ZXing6PointTIdEC2Edd(ptr noundef nonnull align 8 dereferenceable(16) %7, double noundef %9, double noundef %11)
  ret void
}

; Function Attrs: mustprogress nounwind uwtable
define linkonce_odr noundef float @_ZNK5ZXing11ResultPoint1yEv(ptr noundef nonnull align 8 dereferenceable(16) %0) #0 comdat align 2 {
  %2 = alloca ptr, align 8
  store ptr %0, ptr %2, align 8, !tbaa !31
  %3 = load ptr, ptr %2, align 8
  %4 = getelementptr inbounds nuw %"struct.ZXing::PointT", ptr %3, i32 0, i32 1
  %5 = load double, ptr %4, align 8, !tbaa !33
  %6 = fptrunc double %5 to float
  ret float %6
}

; Function Attrs: mustprogress nounwind uwtable
define linkonce_odr noundef nonnull align 8 dereferenceable(16) ptr @_ZN5ZXing8NullableINS_11ResultPointEE5valueEv(ptr noundef nonnull align 8 dereferenceable(24) %0) #0 comdat align 2 {
  %2 = alloca ptr, align 8
  store ptr %0, ptr %2, align 8, !tbaa !21
  %3 = load ptr, ptr %2, align 8
  %4 = getelementptr inbounds nuw %"class.ZXing::Nullable", ptr %3, i32 0, i32 1
  ret ptr %4
}

; Function Attrs: inlinehint mustprogress nounwind uwtable
define linkonce_odr noundef zeroext i1 @_ZN5ZXingeqERKNS_8NullableINS_11ResultPointEEEDn(ptr noundef nonnull align 8 dereferenceable(24) %0, ptr %1) #2 comdat {
  %3 = alloca ptr, align 8
  %4 = alloca ptr, align 8
  store ptr %0, ptr %3, align 8, !tbaa !21
  store ptr %1, ptr %4, align 8, !tbaa !25
  %5 = load ptr, ptr %3, align 8, !tbaa !21
  %6 = getelementptr inbounds nuw %"class.ZXing::Nullable", ptr %5, i32 0, i32 0
  %7 = load i8, ptr %6, align 8, !tbaa !23, !range !27, !noundef !28
  %8 = trunc i8 %7 to i1
  %9 = xor i1 %8, true
  ret i1 %9
}

; Function Attrs: mustprogress uwtable
define void @_ZN5ZXing6Pdf41711BoundingBox21calculateMinMaxValuesEv(ptr noundef nonnull align 8 dereferenceable(120) %0) #1 align 2 {
  %2 = alloca ptr, align 8
  %3 = alloca %"class.ZXing::ResultPoint", align 8
  %4 = alloca %"class.ZXing::ResultPoint", align 8
  %5 = alloca %"class.ZXing::ResultPoint", align 8
  %6 = alloca %"class.ZXing::ResultPoint", align 8
  %7 = alloca float, align 4
  %8 = alloca float, align 4
  %9 = alloca float, align 4
  %10 = alloca float, align 4
  %11 = alloca float, align 4
  %12 = alloca float, align 4
  %13 = alloca float, align 4
  %14 = alloca float, align 4
  store ptr %0, ptr %2, align 8, !tbaa !3
  %15 = load ptr, ptr %2, align 8
  %16 = getelementptr inbounds nuw %"class.ZXing::Pdf417::BoundingBox", ptr %15, i32 0, i32 2
  %17 = call noundef zeroext i1 @_ZN5ZXingeqERKNS_8NullableINS_11ResultPointEEEDn(ptr noundef nonnull align 8 dereferenceable(24) %16, ptr null)
  br i1 %17, label %18, label %29

18:                                               ; preds = %1
  call void @llvm.lifetime.start.p0(i64 16, ptr %3) #5
  %19 = getelementptr inbounds nuw %"class.ZXing::Pdf417::BoundingBox", ptr %15, i32 0, i32 4
  %20 = call noundef nonnull align 8 dereferenceable(16) ptr @_ZN5ZXing8NullableINS_11ResultPointEE5valueEv(ptr noundef nonnull align 8 dereferenceable(24) %19)
  %21 = call noundef float @_ZNK5ZXing11ResultPoint1yEv(ptr noundef nonnull align 8 dereferenceable(16) %20)
  call void @_ZN5ZXing11ResultPointC2Eff(ptr noundef nonnull align 8 dereferenceable(16) %3, float noundef 0.000000e+00, float noundef %21)
  %22 = getelementptr inbounds nuw %"class.ZXing::Pdf417::BoundingBox", ptr %15, i32 0, i32 2
  %23 = call noundef nonnull align 8 dereferenceable(24) ptr @_ZN5ZXing8NullableINS_11ResultPointEEaSEOS1_(ptr noundef nonnull align 8 dereferenceable(24) %22, ptr noundef nonnull align 8 dereferenceable(16) %3) #5
  call void @llvm.lifetime.end.p0(i64 16, ptr %3) #5
  call void @llvm.lifetime.start.p0(i64 16, ptr %4) #5
  %24 = getelementptr inbounds nuw %"class.ZXing::Pdf417::BoundingBox", ptr %15, i32 0, i32 5
  %25 = call noundef nonnull align 8 dereferenceable(16) ptr @_ZN5ZXing8NullableINS_11ResultPointEE5valueEv(ptr noundef nonnull align 8 dereferenceable(24) %24)
  %26 = call noundef float @_ZNK5ZXing11ResultPoint1yEv(ptr noundef nonnull align 8 dereferenceable(16) %25)
  call void @_ZN5ZXing11ResultPointC2Eff(ptr noundef nonnull align 8 dereferenceable(16) %4, float noundef 0.000000e+00, float noundef %26)
  %27 = getelementptr inbounds nuw %"class.ZXing::Pdf417::BoundingBox", ptr %15, i32 0, i32 3
  %28 = call noundef nonnull align 8 dereferenceable(24) ptr @_ZN5ZXing8NullableINS_11ResultPointEEaSEOS1_(ptr noundef nonnull align 8 dereferenceable(24) %27, ptr noundef nonnull align 8 dereferenceable(16) %4) #5
  call void @llvm.lifetime.end.p0(i64 16, ptr %4) #5
  br label %52

29:                                               ; preds = %1
  %30 = getelementptr inbounds nuw %"class.ZXing::Pdf417::BoundingBox", ptr %15, i32 0, i32 4
  %31 = call noundef zeroext i1 @_ZN5ZXingeqERKNS_8NullableINS_11ResultPointEEEDn(ptr noundef nonnull align 8 dereferenceable(24) %30, ptr null)
  br i1 %31, label %32, label %51

32:                                               ; preds = %29
  call void @llvm.lifetime.start.p0(i64 16, ptr %5) #5
  %33 = getelementptr inbounds nuw %"class.ZXing::Pdf417::BoundingBox", ptr %15, i32 0, i32 0
  %34 = load i32, ptr %33, align 8, !tbaa !20
  %35 = sub nsw i32 %34, 1
  %36 = sitofp i32 %35 to float
  %37 = getelementptr inbounds nuw %"class.ZXing::Pdf417::BoundingBox", ptr %15, i32 0, i32 2
  %38 = call noundef nonnull align 8 dereferenceable(16) ptr @_ZN5ZXing8NullableINS_11ResultPointEE5valueEv(ptr noundef nonnull align 8 dereferenceable(24) %37)
  %39 = call noundef float @_ZNK5ZXing11ResultPoint1yEv(ptr noundef nonnull align 8 dereferenceable(16) %38)
  call void @_ZN5ZXing11ResultPointC2Eff(ptr noundef nonnull align 8 dereferenceable(16) %5, float noundef %36, float noundef %39)
  %40 = getelementptr inbounds nuw %"class.ZXing::Pdf417::BoundingBox", ptr %15, i32 0, i32 4
  %41 = call noundef nonnull align 8 dereferenceable(24) ptr @_ZN5ZXing8NullableINS_11ResultPointEEaSEOS1_(ptr noundef nonnull align 8 dereferenceable(24) %40, ptr noundef nonnull align 8 dereferenceable(16) %5) #5
  call void @llvm.lifetime.end.p0(i64 16, ptr %5) #5
  call void @llvm.lifetime.start.p0(i64 16, ptr %6) #5
  %42 = getelementptr inbounds nuw %"class.ZXing::Pdf417::BoundingBox", ptr %15, i32 0, i32 0
  %43 = load i32, ptr %42, align 8, !tbaa !20
  %44 = sub nsw i32 %43, 1
  %45 = sitofp i32 %44 to float
  %46 = getelementptr inbounds nuw %"class.ZXing::Pdf417::BoundingBox", ptr %15, i32 0, i32 3
  %47 = call noundef nonnull align 8 dereferenceable(16) ptr @_ZN5ZXing8NullableINS_11ResultPointEE5valueEv(ptr noundef nonnull align 8 dereferenceable(24) %46)
  %48 = call noundef float @_ZNK5ZXing11ResultPoint1yEv(ptr noundef nonnull align 8 dereferenceable(16) %47)
  call void @_ZN5ZXing11ResultPointC2Eff(ptr noundef nonnull align 8 dereferenceable(16) %6, float noundef %45, float noundef %48)
  %49 = getelementptr inbounds nuw %"class.ZXing::Pdf417::BoundingBox", ptr %15, i32 0, i32 5
  %50 = call noundef nonnull align 8 dereferenceable(24) ptr @_ZN5ZXing8NullableINS_11ResultPointEEaSEOS1_(ptr noundef nonnull align 8 dereferenceable(24) %49, ptr noundef nonnull align 8 dereferenceable(16) %6) #5
  call void @llvm.lifetime.end.p0(i64 16, ptr %6) #5
  br label %51

51:                                               ; preds = %32, %29
  br label %52

52:                                               ; preds = %51, %18
  call void @llvm.lifetime.start.p0(i64 4, ptr %7) #5
  %53 = getelementptr inbounds nuw %"class.ZXing::Pdf417::BoundingBox", ptr %15, i32 0, i32 2
  %54 = call noundef nonnull align 8 dereferenceable(16) ptr @_ZN5ZXing8NullableINS_11ResultPointEE5valueEv(ptr noundef nonnull align 8 dereferenceable(24) %53)
  %55 = call noundef float @_ZNK5ZXing11ResultPoint1xEv(ptr noundef nonnull align 8 dereferenceable(16) %54)
  store float %55, ptr %7, align 4, !tbaa !29
  call void @llvm.lifetime.start.p0(i64 4, ptr %8) #5
  %56 = getelementptr inbounds nuw %"class.ZXing::Pdf417::BoundingBox", ptr %15, i32 0, i32 3
  %57 = call noundef nonnull align 8 dereferenceable(16) ptr @_ZN5ZXing8NullableINS_11ResultPointEE5valueEv(ptr noundef nonnull align 8 dereferenceable(24) %56)
  %58 = call noundef float @_ZNK5ZXing11ResultPoint1xEv(ptr noundef nonnull align 8 dereferenceable(16) %57)
  store float %58, ptr %8, align 4, !tbaa !29
  %59 = call noundef nonnull align 4 dereferenceable(4) ptr @_ZSt3minIfERKT_S2_S2_(ptr noundef nonnull align 4 dereferenceable(4) %7, ptr noundef nonnull align 4 dereferenceable(4) %8)
  %60 = load float, ptr %59, align 4, !tbaa !29
  %61 = fptosi float %60 to i32
  %62 = getelementptr inbounds nuw %"class.ZXing::Pdf417::BoundingBox", ptr %15, i32 0, i32 6
  store i32 %61, ptr %62, align 8, !tbaa !18
  call void @llvm.lifetime.end.p0(i64 4, ptr %8) #5
  call void @llvm.lifetime.end.p0(i64 4, ptr %7) #5
  call void @llvm.lifetime.start.p0(i64 4, ptr %9) #5
  %63 = getelementptr inbounds nuw %"class.ZXing::Pdf417::BoundingBox", ptr %15, i32 0, i32 4
  %64 = call noundef nonnull align 8 dereferenceable(16) ptr @_ZN5ZXing8NullableINS_11ResultPointEE5valueEv(ptr noundef nonnull align 8 dereferenceable(24) %63)
  %65 = call noundef float @_ZNK5ZXing11ResultPoint1xEv(ptr noundef nonnull align 8 dereferenceable(16) %64)
  store float %65, ptr %9, align 4, !tbaa !29
  call void @llvm.lifetime.start.p0(i64 4, ptr %10) #5
  %66 = getelementptr inbounds nuw %"class.ZXing::Pdf417::BoundingBox", ptr %15, i32 0, i32 5
  %67 = call noundef nonnull align 8 dereferenceable(16) ptr @_ZN5ZXing8NullableINS_11ResultPointEE5valueEv(ptr noundef nonnull align 8 dereferenceable(24) %66)
  %68 = call noundef float @_ZNK5ZXing11ResultPoint1xEv(ptr noundef nonnull align 8 dereferenceable(16) %67)
  store float %68, ptr %10, align 4, !tbaa !29
  %69 = call noundef nonnull align 4 dereferenceable(4) ptr @_ZSt3maxIfERKT_S2_S2_(ptr noundef nonnull align 4 dereferenceable(4) %9, ptr noundef nonnull align 4 dereferenceable(4) %10)
  %70 = load float, ptr %69, align 4, !tbaa !29
  %71 = fptosi float %70 to i32
  %72 = getelementptr inbounds nuw %"class.ZXing::Pdf417::BoundingBox", ptr %15, i32 0, i32 7
  store i32 %71, ptr %72, align 4, !tbaa !17
  call void @llvm.lifetime.end.p0(i64 4, ptr %10) #5
  call void @llvm.lifetime.end.p0(i64 4, ptr %9) #5
  call void @llvm.lifetime.start.p0(i64 4, ptr %11) #5
  %73 = getelementptr inbounds nuw %"class.ZXing::Pdf417::BoundingBox", ptr %15, i32 0, i32 2
  %74 = call noundef nonnull align 8 dereferenceable(16) ptr @_ZN5ZXing8NullableINS_11ResultPointEE5valueEv(ptr noundef nonnull align 8 dereferenceable(24) %73)
  %75 = call noundef float @_ZNK5ZXing11ResultPoint1yEv(ptr noundef nonnull align 8 dereferenceable(16) %74)
  store float %75, ptr %11, align 4, !tbaa !29
  call void @llvm.lifetime.start.p0(i64 4, ptr %12) #5
  %76 = getelementptr inbounds nuw %"class.ZXing::Pdf417::BoundingBox", ptr %15, i32 0, i32 4
  %77 = call noundef nonnull align 8 dereferenceable(16) ptr @_ZN5ZXing8NullableINS_11ResultPointEE5valueEv(ptr noundef nonnull align 8 dereferenceable(24) %76)
  %78 = call noundef float @_ZNK5ZXing11ResultPoint1yEv(ptr noundef nonnull align 8 dereferenceable(16) %77)
  store float %78, ptr %12, align 4, !tbaa !29
  %79 = call noundef nonnull align 4 dereferenceable(4) ptr @_ZSt3minIfERKT_S2_S2_(ptr noundef nonnull align 4 dereferenceable(4) %11, ptr noundef nonnull align 4 dereferenceable(4) %12)
  %80 = load float, ptr %79, align 4, !tbaa !29
  %81 = fptosi float %80 to i32
  %82 = getelementptr inbounds nuw %"class.ZXing::Pdf417::BoundingBox", ptr %15, i32 0, i32 8
  store i32 %81, ptr %82, align 8, !tbaa !16
  call void @llvm.lifetime.end.p0(i64 4, ptr %12) #5
  call void @llvm.lifetime.end.p0(i64 4, ptr %11) #5
  call void @llvm.lifetime.start.p0(i64 4, ptr %13) #5
  %83 = getelementptr inbounds nuw %"class.ZXing::Pdf417::BoundingBox", ptr %15, i32 0, i32 3
  %84 = call noundef nonnull align 8 dereferenceable(16) ptr @_ZN5ZXing8NullableINS_11ResultPointEE5valueEv(ptr noundef nonnull align 8 dereferenceable(24) %83)
  %85 = call noundef float @_ZNK5ZXing11ResultPoint1yEv(ptr noundef nonnull align 8 dereferenceable(16) %84)
  store float %85, ptr %13, align 4, !tbaa !29
  call void @llvm.lifetime.start.p0(i64 4, ptr %14) #5
  %86 = getelementptr inbounds nuw %"class.ZXing::Pdf417::BoundingBox", ptr %15, i32 0, i32 5
  %87 = call noundef nonnull align 8 dereferenceable(16) ptr @_ZN5ZXing8NullableINS_11ResultPointEE5valueEv(ptr noundef nonnull align 8 dereferenceable(24) %86)
  %88 = call noundef float @_ZNK5ZXing11ResultPoint1yEv(ptr noundef nonnull align 8 dereferenceable(16) %87)
  store float %88, ptr %14, align 4, !tbaa !29
  %89 = call noundef nonnull align 4 dereferenceable(4) ptr @_ZSt3maxIfERKT_S2_S2_(ptr noundef nonnull align 4 dereferenceable(4) %13, ptr noundef nonnull align 4 dereferenceable(4) %14)
  %90 = load float, ptr %89, align 4, !tbaa !29
  %91 = fptosi float %90 to i32
  %92 = getelementptr inbounds nuw %"class.ZXing::Pdf417::BoundingBox", ptr %15, i32 0, i32 9
  store i32 %91, ptr %92, align 4, !tbaa !8
  call void @llvm.lifetime.end.p0(i64 4, ptr %14) #5
  call void @llvm.lifetime.end.p0(i64 4, ptr %13) #5
  ret void
}