; Function Attrs: mustprogress nofree norecurse nosync nounwind willreturn memory(argmem: readwrite) uwtable
define void @_ZN5ZXing6Pdf41711BoundingBox21calculateMinMaxValuesEv(ptr noundef nonnull align 8 captures(none) dereferenceable(120) initializes((104, 120)) %0) local_unnamed_addr #1 align 2 {
  %2 = getelementptr inbounds nuw i8, ptr %0, i64 8
  %3 = load i8, ptr %2, align 8, !tbaa !3, !range !11, !noundef !12
  %4 = trunc nuw i8 %3 to i1
  br i1 %4, label %17, label %5

5:                                                ; preds = %1
  %6 = getelementptr inbounds nuw i8, ptr %0, i64 72
  %7 = load double, ptr %6, align 8, !tbaa !17
  %8 = fptrunc double %7 to float
  %9 = fpext float %8 to double
  store i8 1, ptr %2, align 8, !tbaa !3
  %10 = getelementptr inbounds nuw i8, ptr %0, i64 16
  store double 0.000000e+00, ptr %10, align 8
  %.sroa.424.0..sroa_idx = getelementptr inbounds nuw i8, ptr %0, i64 24
  store double %9, ptr %.sroa.424.0..sroa_idx, align 8
  %11 = getelementptr inbounds nuw i8, ptr %0, i64 96
  %12 = load double, ptr %11, align 8, !tbaa !17
  %13 = fptrunc double %12 to float
  %14 = fpext float %13 to double
  %15 = getelementptr inbounds nuw i8, ptr %0, i64 32
  store i8 1, ptr %15, align 8, !tbaa !3
  %16 = getelementptr inbounds nuw i8, ptr %0, i64 40
  store double 0.000000e+00, ptr %16, align 8
  %.sroa.422.0..sroa_idx = getelementptr inbounds nuw i8, ptr %0, i64 48
  store double %14, ptr %.sroa.422.0..sroa_idx, align 8
  br label %37

17:                                               ; preds = %1
  %18 = getelementptr inbounds nuw i8, ptr %0, i64 56
  %19 = load i8, ptr %18, align 8, !tbaa !3, !range !11, !noundef !12
  %20 = trunc nuw i8 %19 to i1
  br i1 %20, label %._crit_edge, label %21

._crit_edge:                                      ; preds = %17
  %.phi.trans.insert = getelementptr inbounds nuw i8, ptr %0, i64 24
  %.pre = load double, ptr %.phi.trans.insert, align 8, !tbaa !17
  %.phi.trans.insert25 = getelementptr inbounds nuw i8, ptr %0, i64 72
  %.pre26 = load double, ptr %.phi.trans.insert25, align 8, !tbaa !17
  %.phi.trans.insert27 = getelementptr inbounds nuw i8, ptr %0, i64 48
  %.pre28 = load double, ptr %.phi.trans.insert27, align 8, !tbaa !17
  %.phi.trans.insert29 = getelementptr inbounds nuw i8, ptr %0, i64 96
  %.pre30 = load double, ptr %.phi.trans.insert29, align 8, !tbaa !17
  br label %37

21:                                               ; preds = %17
  %22 = load i32, ptr %0, align 8, !tbaa !13
  %23 = add nsw i32 %22, -1
  %24 = sitofp i32 %23 to float
  %25 = getelementptr inbounds nuw i8, ptr %0, i64 24
  %26 = load double, ptr %25, align 8, !tbaa !17
  %27 = fptrunc double %26 to float
  %28 = fpext float %24 to double
  %29 = fpext float %27 to double
  store i8 1, ptr %18, align 8, !tbaa !3
  %30 = getelementptr inbounds nuw i8, ptr %0, i64 64
  store double %28, ptr %30, align 8
  %.sroa.420.0..sroa_idx = getelementptr inbounds nuw i8, ptr %0, i64 72
  store double %29, ptr %.sroa.420.0..sroa_idx, align 8
  %31 = getelementptr inbounds nuw i8, ptr %0, i64 48
  %32 = load double, ptr %31, align 8, !tbaa !17
  %33 = fptrunc double %32 to float
  %34 = fpext float %33 to double
  %35 = getelementptr inbounds nuw i8, ptr %0, i64 80
  store i8 1, ptr %35, align 8, !tbaa !3
  %36 = getelementptr inbounds nuw i8, ptr %0, i64 88
  store double %28, ptr %36, align 8
  %.sroa.4.0..sroa_idx = getelementptr inbounds nuw i8, ptr %0, i64 96
  store double %34, ptr %.sroa.4.0..sroa_idx, align 8
  br label %37

37:                                               ; preds = %._crit_edge, %21, %5
  %38 = phi double [ %.pre30, %._crit_edge ], [ %34, %21 ], [ %12, %5 ]
  %39 = phi double [ %.pre28, %._crit_edge ], [ %32, %21 ], [ %14, %5 ]
  %40 = phi double [ %.pre26, %._crit_edge ], [ %29, %21 ], [ %7, %5 ]
  %41 = phi double [ %.pre, %._crit_edge ], [ %26, %21 ], [ %9, %5 ]
  %42 = getelementptr inbounds nuw i8, ptr %0, i64 16
  %43 = load double, ptr %42, align 8, !tbaa !18
  %44 = fptrunc double %43 to float
  %45 = getelementptr inbounds nuw i8, ptr %0, i64 40
  %46 = load double, ptr %45, align 8, !tbaa !18
  %47 = fptrunc double %46 to float
  %48 = fcmp olt float %47, %44
  %.sroa.speculated15 = select i1 %48, float %47, float %44
  %49 = fptosi float %.sroa.speculated15 to i32
  %50 = getelementptr inbounds nuw i8, ptr %0, i64 104
  store i32 %49, ptr %50, align 8, !tbaa !19
  %51 = getelementptr inbounds nuw i8, ptr %0, i64 64
  %52 = load double, ptr %51, align 8, !tbaa !18
  %53 = fptrunc double %52 to float
  %54 = getelementptr inbounds nuw i8, ptr %0, i64 88
  %55 = load double, ptr %54, align 8, !tbaa !18
  %56 = fptrunc double %55 to float
  %57 = fcmp olt float %53, %56
  %.sroa.speculated10 = select i1 %57, float %56, float %53
  %58 = fptosi float %.sroa.speculated10 to i32
  %59 = getelementptr inbounds nuw i8, ptr %0, i64 108
  store i32 %58, ptr %59, align 4, !tbaa !20
  %60 = fptrunc double %41 to float
  %61 = fptrunc double %40 to float
  %62 = fcmp olt float %61, %60
  %.sroa.speculated5 = select i1 %62, float %61, float %60
  %63 = fptosi float %.sroa.speculated5 to i32
  %64 = getelementptr inbounds nuw i8, ptr %0, i64 112
  store i32 %63, ptr %64, align 8, !tbaa !21
  %65 = fptrunc double %39 to float
  %66 = fptrunc double %38 to float
  %67 = fcmp olt float %65, %66
  %.sroa.speculated = select i1 %67, float %66, float %65
  %68 = fptosi float %.sroa.speculated to i32
  %69 = getelementptr inbounds nuw i8, ptr %0, i64 116
  store i32 %68, ptr %69, align 4, !tbaa !22
  ret void
}